target datalayout = "e-m:e-p270:32:32-p271:32:32-p272:64:64-i64:64-i128:128-f80:128-n8:16:32:64-S128"
target triple = "x86_64-pc-linux-gnu"

%struct.fr_foreach_s = type { ptr, ptr, ptr, ptr, i32 }
%struct.packet_hash_opt_s = type { i8, ptr }
%struct._GByteArray = type { ptr, i32 }

@hf_frame_hash_bytes = internal global i32 0, align 4
@.str.111 = private unnamed_addr constant [8 x i8] c"Unknown\00", align 1
@.str.595 = private unnamed_addr constant [8 x i8] c"%s (%u)\00", align 1
@.str.604 = private unnamed_addr constant [10 x i8] c", %s (%u)\00", align 1
@.str.605 = private unnamed_addr constant [15 x i8] c"2's Complement\00", align 1
@.str.606 = private unnamed_addr constant [4 x i8] c"XOR\00", align 1
@.str.607 = private unnamed_addr constant [6 x i8] c"CRC32\00", align 1
@.str.608 = private unnamed_addr constant [4 x i8] c"MD5\00", align 1
@.str.609 = private unnamed_addr constant [5 x i8] c"SHA1\00", align 1
@.str.610 = private unnamed_addr constant [9 x i8] c"Toeplitz\00", align 1

; Function Attrs: nounwind null_pointer_is_valid sspstrong uwtable
define internal ptr @get_hash_type_string(i8 noundef zeroext %0) #7 {
  %2 = alloca ptr, align 8
  %3 = alloca i8, align 1
  store i8 %0, ptr %3, align 1
  %4 = load i8, ptr %3, align 1
  %5 = zext i8 %4 to i32
  switch i32 %5, label %12 [
    i32 0, label %6
    i32 1, label %7
    i32 2, label %8
    i32 3, label %9
    i32 4, label %10
    i32 5, label %11
  ]

6:                                                ; preds = %1
  store ptr @.str.605, ptr %2, align 8
  br label %13

7:                                                ; preds = %1
  store ptr @.str.606, ptr %2, align 8
  br label %13

8:                                                ; preds = %1
  store ptr @.str.607, ptr %2, align 8
  br label %13

9:                                                ; preds = %1
  store ptr @.str.608, ptr %2, align 8
  br label %13

10:                                               ; preds = %1
  store ptr @.str.609, ptr %2, align 8
  br label %13

11:                                               ; preds = %1
  store ptr @.str.610, ptr %2, align 8
  br label %13

12:                                               ; preds = %1
  store ptr @.str.111, ptr %2, align 8
  br label %13

13:                                               ; preds = %12, %11, %10, %9, %8, %7, %6
  %14 = load ptr, ptr %2, align 8
  ret ptr %14
}

; Function Attrs: null_pointer_is_valid sspstrong uwtable
define internal zeroext i1 @frame_add_hash(ptr noundef %0, i32 noundef %1, i32 noundef %2, ptr noundef %3, ptr noundef %4) #0 {
  %6 = alloca ptr, align 8
  %7 = alloca i32, align 4
  %8 = alloca i32, align 4
  %9 = alloca ptr, align 8
  %10 = alloca ptr, align 8
  %11 = alloca ptr, align 8
  %12 = alloca ptr, align 8
  %13 = alloca ptr, align 8
  store ptr %0, ptr %6, align 8
  store i32 %1, ptr %7, align 4
  store i32 %2, ptr %8, align 4
  store ptr %3, ptr %9, align 8
  store ptr %4, ptr %10, align 8
  call void @llvm.lifetime.start.p0(i64 8, ptr %11) #9
  %14 = load ptr, ptr %10, align 8
  store ptr %14, ptr %11, align 8
  %15 = load i32, ptr %7, align 4
  %16 = icmp eq i32 %15, 3
  br i1 %16, label %17, label %54

17:                                               ; preds = %5
  call void @llvm.lifetime.start.p0(i64 8, ptr %12) #9
  %18 = load ptr, ptr %9, align 8
  store ptr %18, ptr %12, align 8
  call void @llvm.lifetime.start.p0(i64 8, ptr %13) #9
  %19 = load ptr, ptr %11, align 8
  %20 = getelementptr inbounds nuw %struct.fr_foreach_s, ptr %19, i32 0, i32 4
  %21 = load i32, ptr %20, align 8
  %22 = icmp ne i32 %21, 0
  %23 = select i1 %22, ptr @.str.604, ptr @.str.595
  store ptr %23, ptr %13, align 8
  %24 = load ptr, ptr %11, align 8
  %25 = getelementptr inbounds nuw %struct.fr_foreach_s, ptr %24, i32 0, i32 0
  %26 = load ptr, ptr %25, align 8
  %27 = load ptr, ptr %13, align 8
  %28 = load ptr, ptr %12, align 8
  %29 = getelementptr inbounds nuw %struct.packet_hash_opt_s, ptr %28, i32 0, i32 0
  %30 = load i8, ptr %29, align 8
  %31 = call ptr @get_hash_type_string(i8 noundef zeroext %30)
  %32 = load ptr, ptr %12, align 8
  %33 = getelementptr inbounds nuw %struct.packet_hash_opt_s, ptr %32, i32 0, i32 0
  %34 = load i8, ptr %33, align 8
  %35 = zext i8 %34 to i32
  call void (ptr, ptr, ...) @proto_item_append_text(ptr noundef %26, ptr noundef %27, ptr noundef %31, i32 noundef %35)
  %36 = load ptr, ptr %11, align 8
  %37 = getelementptr inbounds nuw %struct.fr_foreach_s, ptr %36, i32 0, i32 1
  %38 = load ptr, ptr %37, align 8
  %39 = load i32, ptr @hf_frame_hash_bytes, align 4
  %40 = load ptr, ptr %11, align 8
  %41 = getelementptr inbounds nuw %struct.fr_foreach_s, ptr %40, i32 0, i32 2
  %42 = load ptr, ptr %41, align 8
  %43 = load ptr, ptr %12, align 8
  %44 = getelementptr inbounds nuw %struct.packet_hash_opt_s, ptr %43, i32 0, i32 1
  %45 = load ptr, ptr %44, align 8
  %46 = getelementptr inbounds nuw %struct._GByteArray, ptr %45, i32 0, i32 0
  %47 = load ptr, ptr %46, align 8
  %48 = load ptr, ptr %12, align 8
  %49 = getelementptr inbounds nuw %struct.packet_hash_opt_s, ptr %48, i32 0, i32 1
  %50 = load ptr, ptr %49, align 8
  %51 = getelementptr inbounds nuw %struct._GByteArray, ptr %50, i32 0, i32 1
  %52 = load i32, ptr %51, align 8
  %53 = call ptr @proto_tree_add_bytes_with_length(ptr noundef %38, i32 noundef %39, ptr noundef %42, i32 noundef 0, i32 noundef 0, ptr noundef %47, i32 noundef %52)
  call void @llvm.lifetime.end.p0(i64 8, ptr %13) #9
  call void @llvm.lifetime.end.p0(i64 8, ptr %12) #9
  br label %54

54:                                               ; preds = %17, %5
  %55 = load ptr, ptr %11, align 8
  %56 = getelementptr inbounds nuw %struct.fr_foreach_s, ptr %55, i32 0, i32 4
  %57 = load i32, ptr %56, align 8
  %58 = add i32 %57, 1
  store i32 %58, ptr %56, align 8
  call void @llvm.lifetime.end.p0(i64 8, ptr %11) #9
  ret i1 true
}