; Function Attrs: null_pointer_is_valid sspstrong uwtable
define internal noundef zeroext i1 @frame_add_hash(ptr readnone captures(none) %0, i32 noundef %1, i32 %2, ptr noundef readonly captures(none) %3, ptr noundef captures(none) %4) #0 {
  %6 = icmp eq i32 %1, 3
  br i1 %6, label %7, label %27

7:                                                ; preds = %5
  %8 = getelementptr inbounds nuw i8, ptr %4, i64 32
  %9 = load i32, ptr %8, align 8
  %.not = icmp eq i32 %9, 0
  %10 = select i1 %.not, ptr @.str.595, ptr @.str.604
  %11 = load ptr, ptr %4, align 8
  %12 = load i8, ptr %3, align 8
  %13 = icmp ult i8 %12, 6
  br i1 %13, label %switch.lookup, label %get_hash_type_string.exit

switch.lookup:                                    ; preds = %7
  %14 = zext nneg i8 %12 to i64
  %switch.gep = getelementptr inbounds nuw [6 x ptr], ptr @switch.table.frame_add_hash, i64 0, i64 %14
  %switch.load = load ptr, ptr %switch.gep, align 8
  br label %get_hash_type_string.exit

get_hash_type_string.exit:                        ; preds = %7, %switch.lookup
  %.0.i = phi ptr [ %switch.load, %switch.lookup ], [ @.str.111, %7 ]
  %15 = zext i8 %12 to i32
  tail call void (ptr, ptr, ...) @proto_item_append_text(ptr noundef %11, ptr noundef nonnull %10, ptr noundef nonnull %.0.i, i32 noundef %15)
  %16 = getelementptr inbounds nuw i8, ptr %4, i64 8
  %17 = load ptr, ptr %16, align 8
  %18 = load i32, ptr @hf_frame_hash_bytes, align 4
  %19 = getelementptr inbounds nuw i8, ptr %4, i64 16
  %20 = load ptr, ptr %19, align 8
  %21 = getelementptr inbounds nuw i8, ptr %3, i64 8
  %22 = load ptr, ptr %21, align 8
  %23 = load ptr, ptr %22, align 8
  %24 = getelementptr inbounds nuw i8, ptr %22, i64 8
  %25 = load i32, ptr %24, align 8
  %26 = tail call ptr @proto_tree_add_bytes_with_length(ptr noundef %17, i32 noundef %18, ptr noundef %20, i32 noundef 0, i32 noundef 0, ptr noundef %23, i32 noundef %25)
  br label %27

27:                                               ; preds = %get_hash_type_string.exit, %5
  %28 = getelementptr inbounds nuw i8, ptr %4, i64 32
  %29 = load i32, ptr %28, align 8
  %30 = add i32 %29, 1
  store i32 %30, ptr %28, align 8
  ret i1 true
}